target datalayout = "e-m:e-p270:32:32-p271:32:32-p272:64:64-i64:64-i128:128-f80:128-n8:16:32:64-S128"
target triple = "x86_64-pc-linux-gnu"

%struct.ldmParams_t = type { i32, i32, i32, i32, i32, i32 }
%struct.ldmRollingHashState_t = type { i64, i64 }
%struct.ldmEntry_t = type { i32, i32 }
%struct.ldmState_t = type { %struct.ZSTD_window_t, ptr, i32, ptr, [64 x i64], [64 x %struct.ldmMatchCandidate_t] }
%struct.ZSTD_window_t = type { ptr, ptr, ptr, i32, i32, i32 }
%struct.ldmMatchCandidate_t = type { ptr, i32, i32, ptr }

; Function Attrs: nounwind uwtable
define internal ptr @ZSTD_ldm_getBucket(ptr noundef %0, i64 noundef %1, i32 noundef %2) #0 {
  %4 = alloca ptr, align 8
  %5 = alloca i64, align 8
  %6 = alloca i32, align 4
  store ptr %0, ptr %4, align 8, !tbaa !3
  store i64 %1, ptr %5, align 8, !tbaa !17
  store i32 %2, ptr %6, align 4, !tbaa !22
  %7 = load ptr, ptr %4, align 8, !tbaa !3
  %8 = getelementptr inbounds nuw %struct.ldmState_t, ptr %7, i32 0, i32 1
  %9 = load ptr, ptr %8, align 8, !tbaa !48
  %10 = load i64, ptr %5, align 8, !tbaa !17
  %11 = load i32, ptr %6, align 4, !tbaa !22
  %12 = zext i32 %11 to i64
  %13 = shl i64 %10, %12
  %14 = getelementptr inbounds nuw %struct.ldmEntry_t, ptr %9, i64 %13
  ret ptr %14
}

; Function Attrs: nounwind uwtable
define internal void @ZSTD_ldm_insertEntry(ptr noundef %0, i64 noundef %1, i64 %2, i32 noundef %3) #0 {
  %5 = alloca %struct.ldmEntry_t, align 4
  %6 = alloca ptr, align 8
  %7 = alloca i64, align 8
  %8 = alloca i32, align 4
  %9 = alloca ptr, align 8
  %10 = alloca i32, align 4
  store i64 %2, ptr %5, align 4
  store ptr %0, ptr %6, align 8, !tbaa !3
  store i64 %1, ptr %7, align 8, !tbaa !17
  store i32 %3, ptr %8, align 4, !tbaa !22
  call void @llvm.lifetime.start.p0(i64 8, ptr %9) #12
  %11 = load ptr, ptr %6, align 8, !tbaa !3
  %12 = getelementptr inbounds nuw %struct.ldmState_t, ptr %11, i32 0, i32 3
  %13 = load ptr, ptr %12, align 8, !tbaa !42
  %14 = load i64, ptr %7, align 8, !tbaa !17
  %15 = getelementptr inbounds nuw i8, ptr %13, i64 %14
  store ptr %15, ptr %9, align 8, !tbaa !20
  call void @llvm.lifetime.start.p0(i64 4, ptr %10) #12
  %16 = load ptr, ptr %9, align 8, !tbaa !20
  %17 = load i8, ptr %16, align 1, !tbaa !39
  %18 = zext i8 %17 to i32
  store i32 %18, ptr %10, align 4, !tbaa !22
  %19 = load ptr, ptr %6, align 8, !tbaa !3
  %20 = load i64, ptr %7, align 8, !tbaa !17
  %21 = load i32, ptr %8, align 4, !tbaa !22
  %22 = call ptr @ZSTD_ldm_getBucket(ptr noundef %19, i64 noundef %20, i32 noundef %21)
  %23 = load i32, ptr %10, align 4, !tbaa !22
  %24 = zext i32 %23 to i64
  %25 = getelementptr inbounds nuw %struct.ldmEntry_t, ptr %22, i64 %24
  call void @llvm.memcpy.p0.p0.i64(ptr align 4 %25, ptr align 4 %5, i64 8, i1 false), !tbaa.struct !43
  %26 = load i32, ptr %10, align 4, !tbaa !22
  %27 = add i32 %26, 1
  %28 = load i32, ptr %8, align 4, !tbaa !22
  %29 = shl i32 1, %28
  %30 = sub i32 %29, 1
  %31 = and i32 %27, %30
  %32 = trunc i32 %31 to i8
  %33 = load ptr, ptr %9, align 8, !tbaa !20
  store i8 %32, ptr %33, align 1, !tbaa !39
  call void @llvm.lifetime.end.p0(i64 4, ptr %10) #12
  call void @llvm.lifetime.end.p0(i64 8, ptr %9) #12
  ret void
}

; Function Attrs: nounwind uwtable
define internal void @ZSTD_ldm_gear_init(ptr noundef %0, ptr noundef %1) #0 {
  %3 = alloca ptr, align 8
  %4 = alloca ptr, align 8
  %5 = alloca i32, align 4
  %6 = alloca i32, align 4
  store ptr %0, ptr %3, align 8, !tbaa !3
  store ptr %1, ptr %4, align 8, !tbaa !3
  call void @llvm.lifetime.start.p0(i64 4, ptr %5) #12
  %7 = load ptr, ptr %4, align 8, !tbaa !3
  %8 = getelementptr inbounds nuw %struct.ldmParams_t, ptr %7, i32 0, i32 3
  %9 = load i32, ptr %8, align 4, !tbaa !15
  %10 = icmp ult i32 %9, 64
  br i1 %10, label %11, label %15

11:                                               ; preds = %2
  %12 = load ptr, ptr %4, align 8, !tbaa !3
  %13 = getelementptr inbounds nuw %struct.ldmParams_t, ptr %12, i32 0, i32 3
  %14 = load i32, ptr %13, align 4, !tbaa !15
  br label %16

15:                                               ; preds = %2
  br label %16

16:                                               ; preds = %15, %11
  %17 = phi i32 [ %14, %11 ], [ 64, %15 ]
  store i32 %17, ptr %5, align 4, !tbaa !22
  call void @llvm.lifetime.start.p0(i64 4, ptr %6) #12
  %18 = load ptr, ptr %4, align 8, !tbaa !3
  %19 = getelementptr inbounds nuw %struct.ldmParams_t, ptr %18, i32 0, i32 4
  %20 = load i32, ptr %19, align 4, !tbaa !12
  store i32 %20, ptr %6, align 4, !tbaa !22
  %21 = load ptr, ptr %3, align 8, !tbaa !3
  %22 = getelementptr inbounds nuw %struct.ldmRollingHashState_t, ptr %21, i32 0, i32 0
  store i64 4294967295, ptr %22, align 8, !tbaa !34
  %23 = load i32, ptr %6, align 4, !tbaa !22
  %24 = icmp ugt i32 %23, 0
  br i1 %24, label %25, label %41

25:                                               ; preds = %16
  %26 = load i32, ptr %6, align 4, !tbaa !22
  %27 = load i32, ptr %5, align 4, !tbaa !22
  %28 = icmp ule i32 %26, %27
  br i1 %28, label %29, label %41

29:                                               ; preds = %25
  %30 = load i32, ptr %6, align 4, !tbaa !22
  %31 = zext i32 %30 to i64
  %32 = shl i64 1, %31
  %33 = sub i64 %32, 1
  %34 = load i32, ptr %5, align 4, !tbaa !22
  %35 = load i32, ptr %6, align 4, !tbaa !22
  %36 = sub i32 %34, %35
  %37 = zext i32 %36 to i64
  %38 = shl i64 %33, %37
  %39 = load ptr, ptr %3, align 8, !tbaa !3
  %40 = getelementptr inbounds nuw %struct.ldmRollingHashState_t, ptr %39, i32 0, i32 1
  store i64 %38, ptr %40, align 8, !tbaa !36
  br label %48

41:                                               ; preds = %25, %16
  %42 = load i32, ptr %6, align 4, !tbaa !22
  %43 = zext i32 %42 to i64
  %44 = shl i64 1, %43
  %45 = sub i64 %44, 1
  %46 = load ptr, ptr %3, align 8, !tbaa !3
  %47 = getelementptr inbounds nuw %struct.ldmRollingHashState_t, ptr %46, i32 0, i32 1
  store i64 %45, ptr %47, align 8, !tbaa !36
  br label %48

48:                                               ; preds = %41, %29
  call void @llvm.lifetime.end.p0(i64 4, ptr %6) #12
  call void @llvm.lifetime.end.p0(i64 4, ptr %5) #12
  ret void
}

; Function Attrs: nounwind uwtable
define void @ZSTD_ldm_fillHashTable(ptr noundef %0, ptr noundef %1, ptr noundef %2, ptr noundef %3) #0 {
  %5 = alloca ptr, align 8
  %6 = alloca ptr, align 8
  %7 = alloca ptr, align 8
  %8 = alloca ptr, align 8
  %9 = alloca i32, align 4
  %10 = alloca i32, align 4
  %11 = alloca i32, align 4
  %12 = alloca ptr, align 8
  %13 = alloca ptr, align 8
  %14 = alloca %struct.ldmRollingHashState_t, align 8
  %15 = alloca ptr, align 8
  %16 = alloca i32, align 4
  %17 = alloca i64, align 8
  %18 = alloca i32, align 4
  %19 = alloca ptr, align 8
  %20 = alloca i64, align 8
  %21 = alloca i32, align 4
  %22 = alloca %struct.ldmEntry_t, align 4
  store ptr %0, ptr %5, align 8, !tbaa !3
  store ptr %1, ptr %6, align 8, !tbaa !20
  store ptr %2, ptr %7, align 8, !tbaa !20
  store ptr %3, ptr %8, align 8, !tbaa !3
  call void @llvm.lifetime.start.p0(i64 4, ptr %9) #12
  %23 = load ptr, ptr %8, align 8, !tbaa !3
  %24 = getelementptr inbounds nuw %struct.ldmParams_t, ptr %23, i32 0, i32 3
  %25 = load i32, ptr %24, align 4, !tbaa !15
  store i32 %25, ptr %9, align 4, !tbaa !22
  call void @llvm.lifetime.start.p0(i64 4, ptr %10) #12
  %26 = load ptr, ptr %8, align 8, !tbaa !3
  %27 = getelementptr inbounds nuw %struct.ldmParams_t, ptr %26, i32 0, i32 2
  %28 = load i32, ptr %27, align 4, !tbaa !16
  store i32 %28, ptr %10, align 4, !tbaa !22
  call void @llvm.lifetime.start.p0(i64 4, ptr %11) #12
  %29 = load ptr, ptr %8, align 8, !tbaa !3
  %30 = getelementptr inbounds nuw %struct.ldmParams_t, ptr %29, i32 0, i32 1
  %31 = load i32, ptr %30, align 4, !tbaa !13
  %32 = load i32, ptr %10, align 4, !tbaa !22
  %33 = sub i32 %31, %32
  store i32 %33, ptr %11, align 4, !tbaa !22
  call void @llvm.lifetime.start.p0(i64 8, ptr %12) #12
  %34 = load ptr, ptr %5, align 8, !tbaa !3
  %35 = getelementptr inbounds nuw %struct.ldmState_t, ptr %34, i32 0, i32 0
  %36 = getelementptr inbounds nuw %struct.ZSTD_window_t, ptr %35, i32 0, i32 1
  %37 = load ptr, ptr %36, align 8, !tbaa !23
  store ptr %37, ptr %12, align 8, !tbaa !20
  call void @llvm.lifetime.start.p0(i64 8, ptr %13) #12
  %38 = load ptr, ptr %6, align 8, !tbaa !20
  store ptr %38, ptr %13, align 8, !tbaa !20
  call void @llvm.lifetime.start.p0(i64 16, ptr %14) #12
  call void @llvm.lifetime.start.p0(i64 8, ptr %15) #12
  %39 = load ptr, ptr %5, align 8, !tbaa !3
  %40 = getelementptr inbounds nuw %struct.ldmState_t, ptr %39, i32 0, i32 4
  %41 = getelementptr inbounds [64 x i64], ptr %40, i64 0, i64 0
  store ptr %41, ptr %15, align 8, !tbaa !26
  call void @llvm.lifetime.start.p0(i64 4, ptr %16) #12
  br label %42

42:                                               ; preds = %4
  br label %43

43:                                               ; preds = %42
  br label %44

44:                                               ; preds = %43
  %45 = load ptr, ptr %8, align 8, !tbaa !3
  call void @ZSTD_ldm_gear_init(ptr noundef %14, ptr noundef %45)
  br label %46

46:                                               ; preds = %121, %44
  %47 = load ptr, ptr %6, align 8, !tbaa !20
  %48 = load ptr, ptr %7, align 8, !tbaa !20
  %49 = icmp ult ptr %47, %48
  br i1 %49, label %50, label %125

50:                                               ; preds = %46
  call void @llvm.lifetime.start.p0(i64 8, ptr %17) #12
  call void @llvm.lifetime.start.p0(i64 4, ptr %18) #12
  store i32 0, ptr %16, align 4, !tbaa !22
  %51 = load ptr, ptr %6, align 8, !tbaa !20
  %52 = load ptr, ptr %7, align 8, !tbaa !20
  %53 = load ptr, ptr %6, align 8, !tbaa !20
  %54 = ptrtoint ptr %52 to i64
  %55 = ptrtoint ptr %53 to i64
  %56 = sub i64 %54, %55
  %57 = load ptr, ptr %15, align 8, !tbaa !26
  %58 = call i64 @ZSTD_ldm_gear_feed(ptr noundef %14, ptr noundef %51, i64 noundef %56, ptr noundef %57, ptr noundef %16)
  store i64 %58, ptr %17, align 8, !tbaa !17
  store i32 0, ptr %18, align 4, !tbaa !22
  br label %59

59:                                               ; preds = %118, %50
  %60 = load i32, ptr %18, align 4, !tbaa !22
  %61 = load i32, ptr %16, align 4, !tbaa !22
  %62 = icmp ult i32 %60, %61
  br i1 %62, label %63, label %121

63:                                               ; preds = %59
  %64 = load ptr, ptr %6, align 8, !tbaa !20
  %65 = load ptr, ptr %15, align 8, !tbaa !26
  %66 = load i32, ptr %18, align 4, !tbaa !22
  %67 = zext i32 %66 to i64
  %68 = getelementptr inbounds nuw i64, ptr %65, i64 %67
  %69 = load i64, ptr %68, align 8, !tbaa !17
  %70 = getelementptr inbounds nuw i8, ptr %64, i64 %69
  %71 = load ptr, ptr %13, align 8, !tbaa !20
  %72 = load i32, ptr %9, align 4, !tbaa !22
  %73 = zext i32 %72 to i64
  %74 = getelementptr inbounds nuw i8, ptr %71, i64 %73
  %75 = icmp uge ptr %70, %74
  br i1 %75, label %76, label %117

76:                                               ; preds = %63
  call void @llvm.lifetime.start.p0(i64 8, ptr %19) #12
  %77 = load ptr, ptr %6, align 8, !tbaa !20
  %78 = load ptr, ptr %15, align 8, !tbaa !26
  %79 = load i32, ptr %18, align 4, !tbaa !22
  %80 = zext i32 %79 to i64
  %81 = getelementptr inbounds nuw i64, ptr %78, i64 %80
  %82 = load i64, ptr %81, align 8, !tbaa !17
  %83 = getelementptr inbounds nuw i8, ptr %77, i64 %82
  %84 = load i32, ptr %9, align 4, !tbaa !22
  %85 = zext i32 %84 to i64
  %86 = sub i64 0, %85
  %87 = getelementptr inbounds i8, ptr %83, i64 %86
  store ptr %87, ptr %19, align 8, !tbaa !20
  call void @llvm.lifetime.start.p0(i64 8, ptr %20) #12
  %88 = load ptr, ptr %19, align 8, !tbaa !20
  %89 = load i32, ptr %9, align 4, !tbaa !22
  %90 = zext i32 %89 to i64
  %91 = call i64 @ZSTD_XXH64(ptr noundef captures(none) %88, i64 noundef %90, i64 noundef 0) #13
  store i64 %91, ptr %20, align 8, !tbaa !17
  call void @llvm.lifetime.start.p0(i64 4, ptr %21) #12
  %92 = load i64, ptr %20, align 8, !tbaa !17
  %93 = load i32, ptr %11, align 4, !tbaa !22
  %94 = shl i32 1, %93
  %95 = sub i32 %94, 1
  %96 = zext i32 %95 to i64
  %97 = and i64 %92, %96
  %98 = trunc i64 %97 to i32
  store i32 %98, ptr %21, align 4, !tbaa !22
  call void @llvm.lifetime.start.p0(i64 8, ptr %22) #12
  %99 = load ptr, ptr %19, align 8, !tbaa !20
  %100 = load ptr, ptr %12, align 8, !tbaa !20
  %101 = ptrtoint ptr %99 to i64
  %102 = ptrtoint ptr %100 to i64
  %103 = sub i64 %101, %102
  %104 = trunc i64 %103 to i32
  %105 = getelementptr inbounds nuw %struct.ldmEntry_t, ptr %22, i32 0, i32 0
  store i32 %104, ptr %105, align 4, !tbaa !28
  %106 = load i64, ptr %20, align 8, !tbaa !17
  %107 = lshr i64 %106, 32
  %108 = trunc i64 %107 to i32
  %109 = getelementptr inbounds nuw %struct.ldmEntry_t, ptr %22, i32 0, i32 1
  store i32 %108, ptr %109, align 4, !tbaa !30
  %110 = load ptr, ptr %5, align 8, !tbaa !3
  %111 = load i32, ptr %21, align 4, !tbaa !22
  %112 = zext i32 %111 to i64
  %113 = load ptr, ptr %8, align 8, !tbaa !3
  %114 = getelementptr inbounds nuw %struct.ldmParams_t, ptr %113, i32 0, i32 2
  %115 = load i32, ptr %114, align 4, !tbaa !16
  %116 = load i64, ptr %22, align 4
  call void @ZSTD_ldm_insertEntry(ptr noundef %110, i64 noundef %112, i64 %116, i32 noundef %115)
  call void @llvm.lifetime.end.p0(i64 8, ptr %22) #12
  call void @llvm.lifetime.end.p0(i64 4, ptr %21) #12
  call void @llvm.lifetime.end.p0(i64 8, ptr %20) #12
  call void @llvm.lifetime.end.p0(i64 8, ptr %19) #12
  br label %117

117:                                              ; preds = %76, %63
  br label %118

118:                                              ; preds = %117
  %119 = load i32, ptr %18, align 4, !tbaa !22
  %120 = add i32 %119, 1
  store i32 %120, ptr %18, align 4, !tbaa !22
  br label %59, !llvm.loop !31

121:                                              ; preds = %59
  %122 = load i64, ptr %17, align 8, !tbaa !17
  %123 = load ptr, ptr %6, align 8, !tbaa !20
  %124 = getelementptr inbounds nuw i8, ptr %123, i64 %122
  store ptr %124, ptr %6, align 8, !tbaa !20
  call void @llvm.lifetime.end.p0(i64 4, ptr %18) #12
  call void @llvm.lifetime.end.p0(i64 8, ptr %17) #12
  br label %46, !llvm.loop !33

125:                                              ; preds = %46
  call void @llvm.lifetime.end.p0(i64 4, ptr %16) #12
  call void @llvm.lifetime.end.p0(i64 8, ptr %15) #12
  call void @llvm.lifetime.end.p0(i64 16, ptr %14) #12
  call void @llvm.lifetime.end.p0(i64 8, ptr %13) #12
  call void @llvm.lifetime.end.p0(i64 8, ptr %12) #12
  call void @llvm.lifetime.end.p0(i64 4, ptr %11) #12
  call void @llvm.lifetime.end.p0(i64 4, ptr %10) #12
  call void @llvm.lifetime.end.p0(i64 4, ptr %9) #12
  ret void
}