; Function Attrs: nofree nounwind memory(readwrite, inaccessiblemem: read) uwtable
define void @ZSTD_ldm_fillHashTable(ptr noundef captures(none) %0, ptr noundef %1, ptr noundef %2, ptr noundef readonly captures(none) %3) local_unnamed_addr #3 {
  %5 = alloca %struct.ldmRollingHashState_t, align 8
  %6 = alloca i32, align 4
  %7 = getelementptr inbounds nuw i8, ptr %3, i64 12
  %8 = load i32, ptr %7, align 4, !tbaa !13
  %.12.val.fr.i = freeze i32 %8
  %9 = getelementptr inbounds nuw i8, ptr %3, i64 8
  %10 = load i32, ptr %9, align 4, !tbaa !14
  %11 = getelementptr inbounds nuw i8, ptr %3, i64 4
  %12 = load i32, ptr %11, align 4, !tbaa !11
  %13 = getelementptr inbounds nuw i8, ptr %0, i64 8
  %14 = load ptr, ptr %13, align 8, !tbaa !16
  call void @llvm.lifetime.start.p0(i64 16, ptr nonnull %5) #14
  %15 = getelementptr inbounds nuw i8, ptr %0, i64 64
  call void @llvm.lifetime.start.p0(i64 4, ptr nonnull %6) #14
  %16 = getelementptr i8, ptr %3, i64 16
  %.val39 = load i32, ptr %16, align 4, !tbaa !10
  %spec.select.i = tail call i32 @llvm.umin.i32(i32 %.12.val.fr.i, i32 64)
  store i64 4294967295, ptr %5, align 8, !tbaa !21
  %17 = add i32 %.val39, -1
  %or.cond.not.i = icmp ult i32 %17, %spec.select.i
  %18 = zext nneg i32 %.val39 to i64
  %notmask15.i = shl nsw i64 -1, %18
  %19 = xor i64 %notmask15.i, -1
  %20 = sub nuw nsw i32 %spec.select.i, %.val39
  %narrow.i = select i1 %or.cond.not.i, i32 %20, i32 0
  %21 = zext nneg i32 %narrow.i to i64
  %.sink.i = shl i64 %19, %21
  %22 = getelementptr inbounds nuw i8, ptr %5, i64 8
  store i64 %.sink.i, ptr %22, align 8, !tbaa !24
  %23 = icmp ult ptr %1, %2
  br i1 %23, label %.lr.ph45, label %._crit_edge46

.lr.ph45:                                         ; preds = %4
  %24 = sub i32 %12, %10
  %25 = ptrtoint ptr %2 to i64
  %26 = zext i32 %.12.val.fr.i to i64
  %27 = getelementptr inbounds nuw i8, ptr %1, i64 %26
  %28 = sub nsw i64 0, %26
  %notmask = shl nsw i32 -1, %24
  %29 = xor i32 %notmask, -1
  %30 = ptrtoint ptr %14 to i64
  %31 = getelementptr i8, ptr %0, i64 40
  %32 = getelementptr i8, ptr %0, i64 56
  br label %33

33:                                               ; preds = %.lr.ph45, %._crit_edge
  %.043 = phi ptr [ %1, %.lr.ph45 ], [ %63, %._crit_edge ]
  store i32 0, ptr %6, align 4, !tbaa !25
  %34 = ptrtoint ptr %.043 to i64
  %35 = sub i64 %25, %34
  %36 = call fastcc i64 @ZSTD_ldm_gear_feed(ptr noundef %5, ptr noundef %.043, i64 noundef %35, ptr noundef nonnull %15, ptr noundef %6)
  %37 = load i32, ptr %6, align 4, !tbaa !25
  %.not47 = icmp eq i32 %37, 0
  br i1 %.not47, label %._crit_edge, label %.lr.ph.preheader

.lr.ph.preheader:                                 ; preds = %33
  %wide.trip.count = zext i32 %37 to i64
  br label %.lr.ph

.lr.ph:                                           ; preds = %.lr.ph.preheader, %62
  %indvars.iv = phi i64 [ 0, %.lr.ph.preheader ], [ %indvars.iv.next, %62 ]
  %38 = getelementptr inbounds nuw i64, ptr %15, i64 %indvars.iv
  %39 = load i64, ptr %38, align 8, !tbaa !26
  %40 = getelementptr inbounds nuw i8, ptr %.043, i64 %39
  %.not = icmp ult ptr %40, %27
  br i1 %.not, label %62, label %41

41:                                               ; preds = %.lr.ph
  %42 = getelementptr inbounds i8, ptr %40, i64 %28
  %43 = tail call i64 @ZSTD_XXH64(ptr noundef captures(none) %42, i64 noundef %26, i64 noundef 0) #15
  %44 = trunc i64 %43 to i32
  %45 = and i32 %44, %29
  %46 = ptrtoint ptr %42 to i64
  %47 = sub i64 %46, %30
  %.sroa.4.0.insert.shift = and i64 %43, -4294967296
  %48 = zext nneg i32 %45 to i64
  %49 = load i32, ptr %9, align 4, !tbaa !14
  %.sroa.0.0.insert.ext = and i64 %47, 4294967295
  %.sroa.0.0.insert.insert = or disjoint i64 %.sroa.4.0.insert.shift, %.sroa.0.0.insert.ext
  %.val40 = load ptr, ptr %31, align 8, !tbaa !27
  %.val41 = load ptr, ptr %32, align 8, !tbaa !28
  %50 = getelementptr inbounds nuw i8, ptr %.val41, i64 %48
  %51 = load i8, ptr %50, align 1, !tbaa !29
  %52 = zext i8 %51 to i32
  %53 = zext nneg i32 %49 to i64
  %54 = shl i64 %48, %53
  %55 = getelementptr inbounds nuw %struct.ldmEntry_t, ptr %.val40, i64 %54
  %56 = zext i8 %51 to i64
  %57 = getelementptr inbounds nuw %struct.ldmEntry_t, ptr %55, i64 %56
  store i64 %.sroa.0.0.insert.insert, ptr %57, align 4
  %58 = add nuw nsw i32 %52, 1
  %notmask.i = shl nsw i32 -1, %49
  %59 = xor i32 %notmask.i, -1
  %60 = and i32 %58, %59
  %61 = trunc i32 %60 to i8
  store i8 %61, ptr %50, align 1, !tbaa !29
  br label %62

62:                                               ; preds = %.lr.ph, %41
  %indvars.iv.next = add nuw nsw i64 %indvars.iv, 1
  %exitcond.not = icmp eq i64 %indvars.iv.next, %wide.trip.count
  br i1 %exitcond.not, label %._crit_edge, label %.lr.ph, !llvm.loop !30

._crit_edge:                                      ; preds = %62, %33
  %63 = getelementptr inbounds nuw i8, ptr %.043, i64 %36
  %64 = icmp ult ptr %63, %2
  br i1 %64, label %33, label %._crit_edge46, !llvm.loop !32

._crit_edge46:                                    ; preds = %._crit_edge, %4
  call void @llvm.lifetime.end.p0(i64 4, ptr nonnull %6) #14
  call void @llvm.lifetime.end.p0(i64 16, ptr nonnull %5) #14
  ret void
}